; Function Attrs: mustprogress nofree norecurse nosync nounwind willreturn memory(argmem: readwrite) uwtable
define noundef i32 @_ZNK6icu_7510DateFormat10getContextE19UDisplayContextTypeR10UErrorCode(ptr nocapture noundef nonnull readonly align 8 dereferenceable(352) %this, i32 noundef %type, ptr nocapture noundef nonnull align 4 dereferenceable(4) %status) unnamed_addr #7 align 2 {
entry:
  %0 = load i32, ptr %status, align 4
  %cmp.i = icmp slt i32 %0, 1
  br i1 %cmp.i, label %if.end, label %return

if.end:                                           ; preds = %entry
  %cmp.not = icmp eq i32 %type, 1
  br i1 %cmp.not, label %if.end3, label %if.then2

if.then2:                                         ; preds = %if.end
  store i32 1, ptr %status, align 4
  br label %return

if.end3:                                          ; preds = %if.end
  %fCapitalizationContext = getelementptr inbounds i8, ptr %this, i64 348
  %1 = load i32, ptr %fCapitalizationContext, align 4
  br label %return

return:                                           ; preds = %entry, %if.end3, %if.then2
  %retval.0 = phi i32 [ 0, %if.then2 ], [ %1, %if.end3 ], [ 0, %entry ]
  ret i32 %retval.0
}